; Function Attrs: mustprogress uwtable
define noundef i32 @_ZNK3nix11BaseSettingINS_11SandboxModeEE5parseERKNSt7__cxx1112basic_stringIcSt11char_traitsIcESaIcEEE(ptr noundef nonnull align 8 dereferenceable(145) %0, ptr noundef nonnull align 8 dereferenceable(32) %1) unnamed_addr #5 align 2 personality ptr @__gxx_personality_v0 {
  %3 = alloca %"class.std::__cxx11::basic_string", align 8
  %4 = alloca %"class.std::allocator.5", align 1
  %5 = getelementptr inbounds i8, ptr %1, i64 8
  %6 = load i64, ptr %5, align 8
  %7 = icmp eq i64 %6, 0
  br i1 %7, label %_ZSteqIcSt11char_traitsIcESaIcEEbRKNSt7__cxx1112basic_stringIT_T0_T1_EEPKS5_.exit, label %_ZNSt11char_traitsIcE7compareEPKcS2_m.exit.i.i

_ZNSt11char_traitsIcE7compareEPKcS2_m.exit.i.i:   ; preds = %2
  %.sroa.speculated.i.i = tail call i64 @llvm.umin.i64(i64 %6, i64 4)
  %8 = load ptr, ptr %1, align 8
  %bcmp.i = tail call i32 @bcmp(ptr %8, ptr nonnull @.str.230, i64 %.sroa.speculated.i.i)
  %.not.i.i = icmp eq i32 %bcmp.i, 0
  br i1 %.not.i.i, label %_ZSteqIcSt11char_traitsIcESaIcEEbRKNSt7__cxx1112basic_stringIT_T0_T1_EEPKS5_.exit, label %_ZNSt11char_traitsIcE7compareEPKcS2_m.exit.i.i13

_ZSteqIcSt11char_traitsIcESaIcEEbRKNSt7__cxx1112basic_stringIT_T0_T1_EEPKS5_.exit: ; preds = %2, %_ZNSt11char_traitsIcE7compareEPKcS2_m.exit.i.i
  %9 = add i64 %6, -4
  %spec.select7.i.i.i = tail call i64 @llvm.smax.i64(i64 %9, i64 -2147483648)
  %.08.i.i.i = tail call i64 @llvm.smin.i64(i64 %spec.select7.i.i.i, i64 2147483647)
  %10 = and i64 %.08.i.i.i, 4294967295
  %11 = icmp eq i64 %10, 0
  br i1 %11, label %28, label %_ZSteqIcSt11char_traitsIcESaIcEEbRKNSt7__cxx1112basic_stringIT_T0_T1_EEPKS5_.exit.thread

_ZSteqIcSt11char_traitsIcESaIcEEbRKNSt7__cxx1112basic_stringIT_T0_T1_EEPKS5_.exit.thread: ; preds = %_ZSteqIcSt11char_traitsIcESaIcEEbRKNSt7__cxx1112basic_stringIT_T0_T1_EEPKS5_.exit
  br i1 %7, label %_ZSteqIcSt11char_traitsIcESaIcEEbRKNSt7__cxx1112basic_stringIT_T0_T1_EEPKS5_.exit20, label %_ZNSt11char_traitsIcE7compareEPKcS2_m.exit.i.i13

_ZNSt11char_traitsIcE7compareEPKcS2_m.exit.i.i13: ; preds = %_ZNSt11char_traitsIcE7compareEPKcS2_m.exit.i.i, %_ZSteqIcSt11char_traitsIcESaIcEEbRKNSt7__cxx1112basic_stringIT_T0_T1_EEPKS5_.exit.thread
  %.sroa.speculated.i.i12 = tail call i64 @llvm.umin.i64(i64 %6, i64 7)
  %12 = load ptr, ptr %1, align 8
  %bcmp.i14 = tail call i32 @bcmp(ptr %12, ptr nonnull @.str.231, i64 %.sroa.speculated.i.i12)
  %.not.i.i15 = icmp eq i32 %bcmp.i14, 0
  br i1 %.not.i.i15, label %_ZSteqIcSt11char_traitsIcESaIcEEbRKNSt7__cxx1112basic_stringIT_T0_T1_EEPKS5_.exit20, label %_ZNSt11char_traitsIcE7compareEPKcS2_m.exit.i.i22

_ZSteqIcSt11char_traitsIcESaIcEEbRKNSt7__cxx1112basic_stringIT_T0_T1_EEPKS5_.exit20: ; preds = %_ZSteqIcSt11char_traitsIcESaIcEEbRKNSt7__cxx1112basic_stringIT_T0_T1_EEPKS5_.exit.thread, %_ZNSt11char_traitsIcE7compareEPKcS2_m.exit.i.i13
  %13 = add i64 %6, -7
  %spec.select7.i.i.i18 = tail call i64 @llvm.smax.i64(i64 %13, i64 -2147483648)
  %.08.i.i.i19 = tail call i64 @llvm.smin.i64(i64 %spec.select7.i.i.i18, i64 2147483647)
  %14 = and i64 %.08.i.i.i19, 4294967295
  %15 = icmp eq i64 %14, 0
  br i1 %15, label %28, label %_ZSteqIcSt11char_traitsIcESaIcEEbRKNSt7__cxx1112basic_stringIT_T0_T1_EEPKS5_.exit20.thread

_ZSteqIcSt11char_traitsIcESaIcEEbRKNSt7__cxx1112basic_stringIT_T0_T1_EEPKS5_.exit20.thread: ; preds = %_ZSteqIcSt11char_traitsIcESaIcEEbRKNSt7__cxx1112basic_stringIT_T0_T1_EEPKS5_.exit20
  br i1 %7, label %_ZSteqIcSt11char_traitsIcESaIcEEbRKNSt7__cxx1112basic_stringIT_T0_T1_EEPKS5_.exit29, label %_ZNSt11char_traitsIcE7compareEPKcS2_m.exit.i.i22

_ZNSt11char_traitsIcE7compareEPKcS2_m.exit.i.i22: ; preds = %_ZNSt11char_traitsIcE7compareEPKcS2_m.exit.i.i13, %_ZSteqIcSt11char_traitsIcESaIcEEbRKNSt7__cxx1112basic_stringIT_T0_T1_EEPKS5_.exit20.thread
  %.sroa.speculated.i.i21 = tail call i64 @llvm.umin.i64(i64 %6, i64 5)
  %16 = load ptr, ptr %1, align 8
  %bcmp.i23 = tail call i32 @bcmp(ptr %16, ptr nonnull @.str.232, i64 %.sroa.speculated.i.i21)
  %.not.i.i24 = icmp eq i32 %bcmp.i23, 0
  br i1 %.not.i.i24, label %_ZSteqIcSt11char_traitsIcESaIcEEbRKNSt7__cxx1112basic_stringIT_T0_T1_EEPKS5_.exit29, label %_ZSteqIcSt11char_traitsIcESaIcEEbRKNSt7__cxx1112basic_stringIT_T0_T1_EEPKS5_.exit29.thread

_ZSteqIcSt11char_traitsIcESaIcEEbRKNSt7__cxx1112basic_stringIT_T0_T1_EEPKS5_.exit29: ; preds = %_ZSteqIcSt11char_traitsIcESaIcEEbRKNSt7__cxx1112basic_stringIT_T0_T1_EEPKS5_.exit20.thread, %_ZNSt11char_traitsIcE7compareEPKcS2_m.exit.i.i22
  %17 = add i64 %6, -5
  %spec.select7.i.i.i27 = tail call i64 @llvm.smax.i64(i64 %17, i64 -2147483648)
  %.08.i.i.i28 = tail call i64 @llvm.smin.i64(i64 %spec.select7.i.i.i27, i64 2147483647)
  %18 = and i64 %.08.i.i.i28, 4294967295
  %19 = icmp eq i64 %18, 0
  br i1 %19, label %28, label %_ZSteqIcSt11char_traitsIcESaIcEEbRKNSt7__cxx1112basic_stringIT_T0_T1_EEPKS5_.exit29.thread

_ZSteqIcSt11char_traitsIcESaIcEEbRKNSt7__cxx1112basic_stringIT_T0_T1_EEPKS5_.exit29.thread: ; preds = %_ZNSt11char_traitsIcE7compareEPKcS2_m.exit.i.i22, %_ZSteqIcSt11char_traitsIcESaIcEEbRKNSt7__cxx1112basic_stringIT_T0_T1_EEPKS5_.exit29
  %20 = tail call ptr @__cxa_allocate_exception(i64 376) #28
  call void @_ZNSaIcEC1Ev(ptr noundef nonnull align 1 dereferenceable(1) %4) #28
  invoke void @_ZNSt7__cxx1112basic_stringIcSt11char_traitsIcESaIcEEC2IS3_EEPKcRKS3_(ptr noundef nonnull align 8 dereferenceable(32) %3, ptr noundef nonnull @.str.233, ptr noundef nonnull align 1 dereferenceable(1) %4)
          to label %21 unwind label %.thread

21:                                               ; preds = %_ZSteqIcSt11char_traitsIcESaIcEEbRKNSt7__cxx1112basic_stringIT_T0_T1_EEPKS5_.exit29.thread
  %22 = getelementptr inbounds i8, ptr %0, i64 8
  invoke void @_ZN3nix9BaseErrorC2IJNSt7__cxx1112basic_stringIcSt11char_traitsIcESaIcEEES7_EEERKS7_DpRKT_(ptr noundef nonnull align 8 dereferenceable(376) %20, ptr noundef nonnull align 8 dereferenceable(32) %3, ptr noundef nonnull align 8 dereferenceable(32) %22, ptr noundef nonnull align 8 dereferenceable(32) %1)
          to label %23 unwind label %25

23:                                               ; preds = %21
  store ptr getelementptr inbounds ({ [5 x ptr] }, ptr @_ZTVN3nix10UsageErrorE, i64 0, i32 0, i64 2), ptr %20, align 8
  invoke void @__cxa_throw(ptr nonnull %20, ptr nonnull @_ZTIN3nix10UsageErrorE, ptr nonnull @_ZN3nix10UsageErrorD2Ev) #32
          to label %30 unwind label %25

.thread:                                          ; preds = %_ZSteqIcSt11char_traitsIcESaIcEEbRKNSt7__cxx1112basic_stringIT_T0_T1_EEPKS5_.exit29.thread
  %24 = landingpad { ptr, i32 }
          cleanup
  call void @_ZNSaIcED1Ev(ptr noundef nonnull align 1 dereferenceable(1) %4) #28
  br label %27

25:                                               ; preds = %23, %21
  %.0 = phi i1 [ false, %23 ], [ true, %21 ]
  %26 = landingpad { ptr, i32 }
          cleanup
  call void @_ZNSt7__cxx1112basic_stringIcSt11char_traitsIcESaIcEED2Ev(ptr noundef nonnull align 8 dereferenceable(32) %3) #28
  call void @_ZNSaIcED1Ev(ptr noundef nonnull align 1 dereferenceable(1) %4) #28
  br i1 %.0, label %27, label %29

27:                                               ; preds = %.thread, %25
  %.pn36 = phi { ptr, i32 } [ %24, %.thread ], [ %26, %25 ]
  call void @__cxa_free_exception(ptr %20) #28
  br label %29

28:                                               ; preds = %_ZSteqIcSt11char_traitsIcESaIcEEbRKNSt7__cxx1112basic_stringIT_T0_T1_EEPKS5_.exit29, %_ZSteqIcSt11char_traitsIcESaIcEEbRKNSt7__cxx1112basic_stringIT_T0_T1_EEPKS5_.exit20, %_ZSteqIcSt11char_traitsIcESaIcEEbRKNSt7__cxx1112basic_stringIT_T0_T1_EEPKS5_.exit
  %.010 = phi i32 [ 0, %_ZSteqIcSt11char_traitsIcESaIcEEbRKNSt7__cxx1112basic_stringIT_T0_T1_EEPKS5_.exit ], [ 1, %_ZSteqIcSt11char_traitsIcESaIcEEbRKNSt7__cxx1112basic_stringIT_T0_T1_EEPKS5_.exit20 ], [ 2, %_ZSteqIcSt11char_traitsIcESaIcEEbRKNSt7__cxx1112basic_stringIT_T0_T1_EEPKS5_.exit29 ]
  ret i32 %.010

29:                                               ; preds = %25, %27
  %.pn35 = phi { ptr, i32 } [ %26, %25 ], [ %.pn36, %27 ]
  resume { ptr, i32 } %.pn35

30:                                               ; preds = %23
  unreachable
}